target datalayout = "e-m:e-p270:32:32-p271:32:32-p272:64:64-i64:64-i128:128-f80:128-n8:16:32:64-S128"
target triple = "x86_64-pc-linux-gnu"

%struct._DlsMat = type { i32, i64, i64, i64, i64, i64, i64, ptr, i64, ptr }

; Function Attrs: nounwind uwtable
define void @SUNDlsMat_AddIdentity(ptr noundef %0) #0 {
  %2 = alloca ptr, align 8
  %3 = alloca i64, align 8
  store ptr %0, ptr %2, align 8, !tbaa !7
  call void @llvm.lifetime.start.p0(i64 8, ptr %3) #4
  %4 = load ptr, ptr %2, align 8, !tbaa !7
  %5 = getelementptr inbounds nuw %struct._DlsMat, ptr %4, i32 0, i32 0
  %6 = load i32, ptr %5, align 8, !tbaa !21
  switch i32 %6, label %53 [
    i32 1, label %7
    i32 2, label %29
  ]

7:                                                ; preds = %1
  store i64 0, ptr %3, align 8, !tbaa !3
  br label %8

8:                                                ; preds = %25, %7
  %9 = load i64, ptr %3, align 8, !tbaa !3
  %10 = load ptr, ptr %2, align 8, !tbaa !7
  %11 = getelementptr inbounds nuw %struct._DlsMat, ptr %10, i32 0, i32 2
  %12 = load i64, ptr %11, align 8, !tbaa !18
  %13 = icmp slt i64 %9, %12
  br i1 %13, label %14, label %28

14:                                               ; preds = %8
  %15 = load ptr, ptr %2, align 8, !tbaa !7
  %16 = getelementptr inbounds nuw %struct._DlsMat, ptr %15, i32 0, i32 9
  %17 = load ptr, ptr %16, align 8, !tbaa !15
  %18 = load i64, ptr %3, align 8, !tbaa !3
  %19 = getelementptr inbounds ptr, ptr %17, i64 %18
  %20 = load ptr, ptr %19, align 8, !tbaa !16
  %21 = load i64, ptr %3, align 8, !tbaa !3
  %22 = getelementptr inbounds double, ptr %20, i64 %21
  %23 = load double, ptr %22, align 8, !tbaa !32
  %24 = fadd double %23, 1.000000e+00
  store double %24, ptr %22, align 8, !tbaa !32
  br label %25

25:                                               ; preds = %14
  %26 = load i64, ptr %3, align 8, !tbaa !3
  %27 = add nsw i64 %26, 1
  store i64 %27, ptr %3, align 8, !tbaa !3
  br label %8

28:                                               ; preds = %8
  br label %53

29:                                               ; preds = %1
  store i64 0, ptr %3, align 8, !tbaa !3
  br label %30

30:                                               ; preds = %49, %29
  %31 = load i64, ptr %3, align 8, !tbaa !3
  %32 = load ptr, ptr %2, align 8, !tbaa !7
  %33 = getelementptr inbounds nuw %struct._DlsMat, ptr %32, i32 0, i32 1
  %34 = load i64, ptr %33, align 8, !tbaa !17
  %35 = icmp slt i64 %31, %34
  br i1 %35, label %36, label %52

36:                                               ; preds = %30
  %37 = load ptr, ptr %2, align 8, !tbaa !7
  %38 = getelementptr inbounds nuw %struct._DlsMat, ptr %37, i32 0, i32 9
  %39 = load ptr, ptr %38, align 8, !tbaa !15
  %40 = load i64, ptr %3, align 8, !tbaa !3
  %41 = getelementptr inbounds ptr, ptr %39, i64 %40
  %42 = load ptr, ptr %41, align 8, !tbaa !16
  %43 = load ptr, ptr %2, align 8, !tbaa !7
  %44 = getelementptr inbounds nuw %struct._DlsMat, ptr %43, i32 0, i32 6
  %45 = load i64, ptr %44, align 8, !tbaa !25
  %46 = getelementptr inbounds double, ptr %42, i64 %45
  %47 = load double, ptr %46, align 8, !tbaa !32
  %48 = fadd double %47, 1.000000e+00
  store double %48, ptr %46, align 8, !tbaa !32
  br label %49

49:                                               ; preds = %36
  %50 = load i64, ptr %3, align 8, !tbaa !3
  %51 = add nsw i64 %50, 1
  store i64 %51, ptr %3, align 8, !tbaa !3
  br label %30

52:                                               ; preds = %30
  br label %53

53:                                               ; preds = %1, %52, %28
  call void @llvm.lifetime.end.p0(i64 8, ptr %3) #4
  ret void
}