; Function Attrs: nofree norecurse nosync nounwind memory(readwrite, inaccessiblemem: none) uwtable
define void @SUNDlsMat_AddIdentity(ptr noundef readonly captures(none) %0) local_unnamed_addr #6 {
  %2 = load i32, ptr %0, align 8, !tbaa !18
  switch i32 %2, label %.loopexit [
    i32 1, label %.preheader
    i32 2, label %.preheader12
  ]

.preheader12:                                     ; preds = %1
  %3 = getelementptr inbounds nuw i8, ptr %0, i64 8
  %4 = load i64, ptr %3, align 8, !tbaa !14
  %5 = icmp sgt i64 %4, 0
  br i1 %5, label %.lr.ph, label %.loopexit

.lr.ph:                                           ; preds = %.preheader12
  %6 = getelementptr inbounds nuw i8, ptr %0, i64 72
  %7 = load ptr, ptr %6, align 8, !tbaa !12
  %8 = getelementptr inbounds nuw i8, ptr %0, i64 48
  %9 = load i64, ptr %8, align 8, !tbaa !21
  br label %22

.preheader:                                       ; preds = %1
  %10 = getelementptr inbounds nuw i8, ptr %0, i64 16
  %11 = load i64, ptr %10, align 8, !tbaa !15
  %12 = icmp sgt i64 %11, 0
  br i1 %12, label %.lr.ph16, label %.loopexit

.lr.ph16:                                         ; preds = %.preheader
  %13 = getelementptr inbounds nuw i8, ptr %0, i64 72
  %14 = load ptr, ptr %13, align 8, !tbaa !12
  br label %15

15:                                               ; preds = %.lr.ph16, %15
  %.015 = phi i64 [ 0, %.lr.ph16 ], [ %21, %15 ]
  %16 = getelementptr inbounds nuw ptr, ptr %14, i64 %.015
  %17 = load ptr, ptr %16, align 8, !tbaa !13
  %18 = getelementptr inbounds nuw double, ptr %17, i64 %.015
  %19 = load double, ptr %18, align 8, !tbaa !22
  %20 = fadd double %19, 1.000000e+00
  store double %20, ptr %18, align 8, !tbaa !22
  %21 = add nuw nsw i64 %.015, 1
  %exitcond18.not = icmp eq i64 %21, %11
  br i1 %exitcond18.not, label %.loopexit, label %15

22:                                               ; preds = %.lr.ph, %22
  %.114 = phi i64 [ 0, %.lr.ph ], [ %28, %22 ]
  %23 = getelementptr inbounds nuw ptr, ptr %7, i64 %.114
  %24 = load ptr, ptr %23, align 8, !tbaa !13
  %25 = getelementptr inbounds double, ptr %24, i64 %9
  %26 = load double, ptr %25, align 8, !tbaa !22
  %27 = fadd double %26, 1.000000e+00
  store double %27, ptr %25, align 8, !tbaa !22
  %28 = add nuw nsw i64 %.114, 1
  %exitcond.not = icmp eq i64 %28, %4
  br i1 %exitcond.not, label %.loopexit, label %22

.loopexit:                                        ; preds = %22, %15, %.preheader12, %.preheader, %1
  ret void
}